; Function Attrs: nounwind uwtable
define internal void @value_changed_event_cb(ptr noundef %0) #0 {
  %2 = tail call ptr @lv_event_get_current_target(ptr noundef %0) #2
  %3 = tail call ptr @lv_obj_get_parent(ptr noundef %2) #2
  %4 = tail call ptr @lv_calendar_get_showed_date(ptr noundef %3) #2
  %5 = tail call ptr @lv_obj_get_child(ptr noundef %2, i32 noundef 0) #2
  %6 = tail call ptr @lv_dropdown_get_options(ptr noundef %5) #2
  %7 = load i8, ptr %6, align 1, !tbaa !3
  %8 = sext i8 %7 to i32
  %9 = mul nsw i32 %8, 1000
  %10 = getelementptr inbounds i8, ptr %6, i64 1
  %11 = load i8, ptr %10, align 1, !tbaa !3
  %12 = sext i8 %11 to i32
  %13 = mul nsw i32 %12, 100
  %14 = getelementptr inbounds i8, ptr %6, i64 2
  %15 = load i8, ptr %14, align 1, !tbaa !3
  %16 = sext i8 %15 to i32
  %17 = mul nsw i32 %16, 10
  %18 = getelementptr inbounds i8, ptr %6, i64 3
  %19 = load i8, ptr %18, align 1, !tbaa !3
  %20 = sext i8 %19 to i32
  %21 = load i16, ptr %4, align 2, !tbaa !8
  %22 = zext i16 %21 to i32
  %23 = add nsw i32 %9, -53328
  %24 = add nsw i32 %23, %13
  %25 = add nsw i32 %24, %17
  %26 = add nsw i32 %25, %20
  %27 = sub nsw i32 %26, %22
  tail call void @lv_dropdown_set_selected(ptr noundef %5, i32 noundef %27) #2
  %28 = tail call ptr @lv_obj_get_child(ptr noundef %2, i32 noundef 1) #2
  %29 = getelementptr inbounds nuw i8, ptr %4, i64 2
  %30 = load i8, ptr %29, align 2, !tbaa !10
  %31 = sext i8 %30 to i32
  %32 = add nsw i32 %31, -1
  tail call void @lv_dropdown_set_selected(ptr noundef %28, i32 noundef %32) #2
  ret void
}